Certificate:
    Data:
        Version: 3 (0x2)
        Serial Number: 2 (0x2)
        Signature Algorithm: sha256WithRSAEncryption
        Issuer: C=FR, ST=Radius, L=Somewhere, O=Example Inc./emailAddress=admin@example.org, CN=Example Certificate Authority
        Validity
            Not Before: Aug 20 18:17:50 2025 GMT
            Not After : Oct 19 18:17:50 2025 GMT
        Subject: C=FR, ST=Radius, O=Example Inc., CN=user@example.org/emailAddress=user@example.org
        Subject Public Key Info:
            Public Key Algorithm: rsaEncryption
                Public-Key: (2048 bit)
                Modulus:
                    00:e0:0d:45:61:92:a8:0a:cf:e7:37:59:68:23:f7:
                    a6:87:a8:03:6f:af:7b:7b:7e:2e:e3:5a:d0:29:e4:
                    d7:8d:a2:a9:54:6e:af:15:54:ea:d9:01:e2:e2:50:
                    76:ed:84:1e:ba:48:7c:53:32:6d:fa:3b:bf:30:3b:
                    e0:28:99:2b:0f:eb:79:c5:36:48:3e:c0:c3:3f:e3:
                    0e:7a:04:6c:fb:83:73:d2:92:66:00:dd:3f:a7:b1:
                    f9:3d:11:c0:d4:80:34:7e:14:06:87:28:8e:24:2a:
                    38:07:21:18:eb:6a:b4:b4:54:16:d3:c8:72:7b:db:
                    f9:88:90:dd:d3:b0:21:ab:56:e3:c4:b2:0e:33:b5:
                    68:26:0b:dd:c9:44:9a:02:20:22:7a:03:33:cc:f5:
                    c1:c0:4b:7b:2e:ce:17:ab:37:52:93:51:b3:90:49:
                    e5:f0:1f:8e:25:01:cd:b3:ee:66:1f:c8:d3:ab:98:
                    72:91:40:25:86:fa:c1:0f:67:45:6c:95:92:ee:ef:
                    b4:7c:50:04:d4:8e:82:06:03:ac:f7:da:e0:dd:11:
                    83:12:07:44:55:49:fc:4a:ab:c7:e5:f4:e5:3e:1e:
                    1f:fa:65:5c:8b:97:aa:f9:04:b7:81:9f:35:d3:34:
                    2f:a7:48:de:c9:48:23:61:28:9f:da:6f:47:b6:45:
                    36:9b
                Exponent: 65537 (0x10001)
        X509v3 extensions:
            X509v3 Extended Key Usage: 
                TLS Web Client Authentication
            X509v3 CRL Distribution Points: 
                Full Name:
                  URI:http://www.example.com/example_ca.crl
            X509v3 Subject Key Identifier: 
                3D:13:B4:84:57:03:4F:8E:28:34:93:1D:EA:5D:DB:06:A6:C0:CD:3A
            X509v3 Authority Key Identifier: 
                70:39:79:C3:2D:AF:5B:4B:20:D4:B8:0C:B1:31:48:9F:E9:41:04:0C
    Signature Algorithm: sha256WithRSAEncryption
    Signature Value:
        27:a8:54:89:0b:eb:a4:a3:05:b6:c7:1e:c3:ff:a8:39:2b:a3:
        bc:fe:f2:3f:55:4d:32:2f:c1:d2:85:c9:1f:03:af:39:b3:79:
        1e:4e:3f:cb:17:b7:d0:2f:b5:c0:55:54:0d:ef:ea:aa:68:46:
        de:b4:ef:86:48:a6:c0:c5:23:ee:66:18:94:d7:ac:2e:a1:77:
        6d:47:f3:2e:11:d7:b6:1d:32:7f:13:f8:6b:0b:3e:5e:d5:c7:
        7b:00:10:6b:9f:62:78:58:e3:07:52:28:96:0f:5c:ad:8f:f9:
        93:e7:38:b5:84:c0:e0:4a:45:0d:87:89:62:93:54:00:43:b1:
        ee:ef:ce:9e:c3:67:38:d6:b1:5e:40:29:6b:dc:98:86:dc:f5:
        40:40:08:d1:48:8c:9e:e3:d1:57:a3:80:7d:94:c7:dc:df:40:
        38:64:df:d7:d9:46:21:eb:1b:2b:e7:d2:b1:61:d2:54:af:cf:
        23:7f:59:a2:ec:70:c8:e0:8d:e0:eb:36:3d:b1:47:d5:c1:4a:
        08:bb:76:0d:69:1e:dd:15:73:fe:5f:17:43:6d:12:ca:00:8c:
        b0:36:b7:23:7d:68:77:59:1d:9f:b6:e6:56:d8:d9:fd:f4:77:
        aa:a6:a7:f0:a3:73:40:d0:09:7a:a8:c6:23:9e:e1:1f:22:80:
        cb:72:d4:ca
-----BEGIN CERTIFICATE-----
MIIEETCCAvmgAwIBAgIBAjANBgkqhkiG9w0BAQsFADCBkzELMAkGA1UEBhMCRlIx
DzANBgNVBAgMBlJhZGl1czESMBAGA1UEBwwJU29tZXdoZXJlMRUwEwYDVQQKDAxF
eGFtcGxlIEluYy4xIDAeBgkqhkiG9w0BCQEWEWFkbWluQGV4YW1wbGUub3JnMSYw
JAYDVQQDDB1FeGFtcGxlIENlcnRpZmljYXRlIEF1dGhvcml0eTAeFw0yNTA4MjAx
ODE3NTBaFw0yNTEwMTkxODE3NTBaMHExCzAJBgNVBAYTAkZSMQ8wDQYDVQQIDAZS
YWRpdXMxFTATBgNVBAoMDEV4YW1wbGUgSW5jLjEZMBcGA1UEAwwQdXNlckBleGFt
cGxlLm9yZzEfMB0GCSqGSIb3DQEJARYQdXNlckBleGFtcGxlLm9yZzCCASIwDQYJ
KoZIhvcNAQEBBQADggEPADCCAQoCggEBAOANRWGSqArP5zdZaCP3poeoA2+ve3t+
LuNa0Cnk142iqVRurxVU6tkB4uJQdu2EHrpIfFMybfo7vzA74CiZKw/recU2SD7A
wz/jDnoEbPuDc9KSZgDdP6ex+T0RwNSANH4UBocojiQqOAchGOtqtLRUFtPIcnvb
+YiQ3dOwIatW48SyDjO1aCYL3clEmgIgInoDM8z1wcBLey7OF6s3UpNRs5BJ5fAf
jiUBzbPuZh/I06uYcpFAJYb6wQ9nRWyVku7vtHxQBNSOggYDrPfa4N0RgxIHRFVJ
/Eqrx+X05T4eH/plXIuXqvkEt4GfNdM0L6dI3slII2Eon9pvR7ZFNpsCAwEAAaOB
kDCBjTATBgNVHSUEDDAKBggrBgEFBQcDAjA2BgNVHR8ELzAtMCugKaAnhiVodHRw
Oi8vd3d3LmV4YW1wbGUuY29tL2V4YW1wbGVfY2EuY3JsMB0GA1UdDgQWBBQ9E7SE
VwNPjig0kx3qXdsGpsDNOjAfBgNVHSMEGDAWgBRwOXnDLa9bSyDUuAyxMUif6UEE
DDANBgkqhkiG9w0BAQsFAAOCAQEAJ6hUiQvrpKMFtscew/+oOSujvP7yP1VNMi/B
0oXJHwOvObN5Hk4/yxe30C+1wFVUDe/qqmhG3rTvhkimwMUj7mYYlNesLqF3bUfz
LhHXth0yfxP4aws+XtXHewAQa59ieFjjB1Iolg9crY/5k+c4tYTA4EpFDYeJYpNU
AEOx7u/OnsNnONaxXkApa9yYhtz1QEAI0UiMnuPRV6OAfZTH3N9AOGTf19lGIesb
K+fSsWHSVK/PI39ZouxwyOCN4Os2PbFH1cFKCLt2DWke3RVz/l8XQ20SygCMsDa3
I31od1kdn7bmVtjZ/fR3qqan8KNzQNAJeqjGI57hHyKAy3LUyg==
-----END CERTIFICATE-----
