Certificate:
    Data:
        Version: 3 (0x2)
        Serial Number: 1 (0x1)
        Signature Algorithm: sha256WithRSAEncryption
        Issuer: C=FR, ST=Radius, L=Somewhere, O=Example Inc./emailAddress=admin@example.org, CN=Example Certificate Authority
        Validity
            Not Before: Aug 20 18:17:50 2025 GMT
            Not After : Oct 19 18:17:50 2025 GMT
        Subject: C=FR, ST=Radius, O=Example Inc., CN=Example Server Certificate/emailAddress=admin@example.org
        Subject Public Key Info:
            Public Key Algorithm: rsaEncryption
                Public-Key: (2048 bit)
                Modulus:
                    00:97:bc:2a:28:33:9c:c7:41:13:a0:f6:eb:8e:a6:
                    82:81:3f:71:b5:21:1e:36:a7:f0:a8:49:59:d2:2a:
                    ac:62:63:39:33:66:3f:d0:03:8c:1a:cc:1b:6e:1d:
                    4b:48:fe:1a:07:1b:c6:c4:17:3b:ee:52:59:a9:e2:
                    51:62:01:83:82:2c:37:94:e2:98:41:f4:36:72:bb:
                    00:e4:c0:5f:80:a9:72:64:8d:24:a6:c6:19:58:44:
                    24:bc:83:79:c4:f8:47:21:79:0c:27:13:35:68:80:
                    82:06:05:75:89:c9:1a:bd:35:e6:1e:04:d4:8b:a8:
                    47:73:45:39:ad:53:89:50:2b:89:e4:c6:9a:64:cf:
                    0b:f5:e6:73:a3:48:ae:e9:4d:0e:f6:58:3f:fe:df:
                    41:c1:7a:3d:ff:31:be:fd:a7:9c:a1:85:cf:7e:da:
                    25:a4:c6:5c:fa:e7:c7:36:f4:94:8c:37:65:4c:18:
                    89:46:6a:9b:2b:71:a3:8f:6c:a8:ff:74:fa:77:ee:
                    ae:20:87:7a:97:9a:7b:77:b6:6e:3e:c1:ed:7c:29:
                    7b:9e:e7:c3:31:e8:45:1c:05:6c:6e:b0:c5:61:d7:
                    f0:43:4b:53:8b:02:65:45:37:0f:c1:3b:3c:8c:a6:
                    63:ca:2f:d1:c6:0b:c5:9a:a5:00:92:f4:93:2a:d7:
                    51:47
                Exponent: 65537 (0x10001)
        X509v3 extensions:
            X509v3 Extended Key Usage: 
                TLS Web Server Authentication
            X509v3 CRL Distribution Points: 
                Full Name:
                  URI:http://www.example.com/example_ca.crl
            X509v3 Certificate Policies: 
                Policy: 1.3.6.1.4.1.40808.1.3.2
            X509v3 Subject Key Identifier: 
                CC:C1:FB:27:F9:B8:62:B7:10:27:43:26:97:63:E4:E3:B0:8F:96:70
            X509v3 Authority Key Identifier: 
                70:39:79:C3:2D:AF:5B:4B:20:D4:B8:0C:B1:31:48:9F:E9:41:04:0C
    Signature Algorithm: sha256WithRSAEncryption
    Signature Value:
        28:58:a3:e7:c0:e5:18:42:20:ae:4d:02:69:65:5f:7e:e1:73:
        68:76:84:53:fe:27:ce:86:88:a0:c6:2d:d5:be:9b:4a:5b:3b:
        9d:68:7e:cf:f3:49:32:e4:95:2c:98:68:21:cd:9e:c5:46:b2:
        1b:22:e5:cc:c4:e8:94:bc:a8:11:32:2e:61:52:59:19:99:a2:
        c8:f6:50:2a:83:f6:fe:a7:db:93:20:1e:1f:ef:0b:5d:23:14:
        59:4c:bc:39:31:db:c1:71:d7:92:4c:6a:eb:0d:4c:96:7c:58:
        f0:ec:66:76:55:5a:a2:64:82:0d:67:09:d8:5e:a2:11:ba:36:
        51:25:7a:b2:12:09:8e:0d:eb:bc:50:a2:f0:0b:76:88:89:1b:
        24:29:9a:7e:08:5c:93:9e:29:97:07:a1:0a:3f:bd:7a:1b:19:
        34:e0:67:1c:2d:fa:50:13:bf:58:d9:9b:cd:da:c6:7d:9b:d1:
        4c:64:97:77:ef:73:b6:6a:aa:0d:52:55:5f:74:e6:25:91:1e:
        8e:ae:9a:5e:7e:ba:1c:c8:04:d3:15:12:41:c6:18:d5:87:8c:
        d1:1f:cc:fe:e5:0b:81:ef:bf:68:40:da:3c:b2:c1:6c:77:1f:
        85:7f:15:c9:cb:31:c9:5d:53:2d:d6:f1:9b:42:83:06:24:04:
        bc:e8:fb:7b
-----BEGIN CERTIFICATE-----
MIIENjCCAx6gAwIBAgIBATANBgkqhkiG9w0BAQsFADCBkzELMAkGA1UEBhMCRlIx
DzANBgNVBAgMBlJhZGl1czESMBAGA1UEBwwJU29tZXdoZXJlMRUwEwYDVQQKDAxF
eGFtcGxlIEluYy4xIDAeBgkqhkiG9w0BCQEWEWFkbWluQGV4YW1wbGUub3JnMSYw
JAYDVQQDDB1FeGFtcGxlIENlcnRpZmljYXRlIEF1dGhvcml0eTAeFw0yNTA4MjAx
ODE3NTBaFw0yNTEwMTkxODE3NTBaMHwxCzAJBgNVBAYTAkZSMQ8wDQYDVQQIDAZS
YWRpdXMxFTATBgNVBAoMDEV4YW1wbGUgSW5jLjEjMCEGA1UEAwwaRXhhbXBsZSBT
ZXJ2ZXIgQ2VydGlmaWNhdGUxIDAeBgkqhkiG9w0BCQEWEWFkbWluQGV4YW1wbGUu
b3JnMIIBIjANBgkqhkiG9w0BAQEFAAOCAQ8AMIIBCgKCAQEAl7wqKDOcx0EToPbr
jqaCgT9xtSEeNqfwqElZ0iqsYmM5M2Y/0AOMGswbbh1LSP4aBxvGxBc77lJZqeJR
YgGDgiw3lOKYQfQ2crsA5MBfgKlyZI0kpsYZWEQkvIN5xPhHIXkMJxM1aICCBgV1
ickavTXmHgTUi6hHc0U5rVOJUCuJ5MaaZM8L9eZzo0iu6U0O9lg//t9BwXo9/zG+
/aecoYXPftolpMZc+ufHNvSUjDdlTBiJRmqbK3Gjj2yo/3T6d+6uIId6l5p7d7Zu
PsHtfCl7nufDMehFHAVsbrDFYdfwQ0tTiwJlRTcPwTs8jKZjyi/RxgvFmqUAkvST
KtdRRwIDAQABo4GqMIGnMBMGA1UdJQQMMAoGCCsGAQUFBwMBMDYGA1UdHwQvMC0w
K6ApoCeGJWh0dHA6Ly93d3cuZXhhbXBsZS5jb20vZXhhbXBsZV9jYS5jcmwwGAYD
VR0gBBEwDzANBgsrBgEEAYK+aAEDAjAdBgNVHQ4EFgQUzMH7J/m4YrcQJ0Mml2Pk
47CPlnAwHwYDVR0jBBgwFoAUcDl5wy2vW0sg1LgMsTFIn+lBBAwwDQYJKoZIhvcN
AQELBQADggEBAChYo+fA5RhCIK5NAmllX37hc2h2hFP+J86GiKDGLdW+m0pbO51o
fs/zSTLklSyYaCHNnsVGshsi5czE6JS8qBEyLmFSWRmZosj2UCqD9v6n25MgHh/v
C10jFFlMvDkx28Fx15JMausNTJZ8WPDsZnZVWqJkgg1nCdheohG6NlElerISCY4N
67xQovALdoiJGyQpmn4IXJOeKZcHoQo/vXobGTTgZxwt+lATv1jZm83axn2b0Uxk
l3fvc7Zqqg1SVV905iWRHo6uml5+uhzIBNMVEkHGGNWHjNEfzP7lC4Hvv2hA2jyy
wWx3H4V/FcnLMcldUy3W8ZtCgwYkBLzo+3s=
-----END CERTIFICATE-----
